Certificate:
    Data:
        Version: 3 (0x2)
        Serial Number:
            c7:10:fe:ba:33:c3:32:b3:f2:cc:88:1d:74:68:df:ee
        Signature Algorithm: sha256WithRSAEncryption
        Issuer: CN=openvpn-ca
        Validity
            Not Before: Apr  9 08:14:46 2025 GMT
            Not After : Jul 13 08:14:46 2027 GMT
        Subject: CN=client2
        Subject Public Key Info:
            Public Key Algorithm: rsaEncryption
                RSA Public-Key: (2048 bit)
                Modulus:
                    00:db:b1:ad:94:8d:38:df:dc:5d:68:01:82:59:8b:
                    17:49:cb:b9:d8:24:83:4e:aa:f8:70:21:58:a9:af:
                    bc:15:ec:82:cf:de:d0:87:50:a7:f4:50:fa:fc:b2:
                    f9:d1:f5:7b:78:d4:e0:26:a9:7d:08:4e:54:76:0f:
                    d3:0b:09:a1:08:e6:17:5b:b3:88:0d:9a:bd:97:11:
                    4a:3a:13:3f:b3:0d:d3:90:aa:12:44:1b:17:08:a0:
                    d1:cc:42:ef:6d:9f:ad:df:12:e9:61:99:0f:48:71:
                    b2:46:d5:de:d8:01:3f:da:54:3f:37:b5:9a:1b:85:
                    87:ce:11:9e:9d:ab:ff:4e:02:4f:a6:d8:a4:5d:24:
                    00:c9:08:ce:13:37:20:23:41:f0:d9:5e:62:6e:3d:
                    02:a3:cf:ef:45:6d:5a:b9:c9:6b:ef:07:de:7c:7c:
                    4d:a5:97:27:2f:e6:ea:17:2b:b9:31:a0:ba:d7:ae:
                    08:4d:57:a6:bf:e5:8e:bf:8e:0a:41:8c:aa:c3:e4:
                    03:52:dd:62:1e:0d:83:1c:0e:8e:81:2a:39:e4:7f:
                    53:13:5e:bc:65:2e:d0:e7:3f:5f:b3:39:14:b4:79:
                    d9:4a:19:0e:e5:88:98:22:98:fc:31:2c:d5:48:7c:
                    35:31:ea:c1:7d:56:29:bf:14:1d:f8:38:bd:70:24:
                    41:3d
                Exponent: 65537 (0x10001)
        X509v3 extensions:
            X509v3 Basic Constraints: 
                CA:FALSE
            X509v3 Subject Key Identifier: 
                B8:EF:24:FD:5F:74:ED:A5:52:53:3A:10:8B:B1:53:CF:EE:F0:B9:F5
            X509v3 Authority Key Identifier: 
                keyid:3B:85:6B:57:E6:0C:F7:62:57:9C:C0:78:D3:7E:03:C7:C2:83:30:4D
                DirName:/CN=openvpn-ca
                serial:7B:48:79:D6:37:49:6D:40:4A:5E:D0:F2:0A:AC:B2:60:DD:D8:42:4C

            X509v3 Extended Key Usage: 
                TLS Web Client Authentication
            X509v3 Key Usage: 
                Digital Signature
    Signature Algorithm: sha256WithRSAEncryption
         7b:b9:85:6c:5e:8f:e7:3d:fc:64:dd:80:42:5e:f8:5c:3e:4b:
         ff:62:d0:be:17:89:a5:6f:60:71:fd:72:b5:9b:8c:74:b7:96:
         55:04:84:03:c9:b2:aa:11:63:c0:cf:75:a8:81:4c:f2:68:ee:
         e8:f9:de:df:c1:bd:88:4b:c7:b9:f2:bd:92:fc:2c:22:a8:d4:
         cf:51:f5:91:c8:9a:70:f0:91:02:c4:dc:7c:7c:cb:95:04:59:
         19:e0:1d:c2:fd:34:91:98:41:2a:76:bc:b6:cc:e4:25:7b:01:
         f3:0b:08:05:88:97:67:2a:ef:a1:c4:b1:b5:f7:37:7f:7f:68:
         e0:dc:58:04:84:88:b7:79:c2:d5:c7:b7:36:41:0e:34:29:47:
         9f:57:7e:d6:ec:30:ab:d5:22:f8:f1:81:e4:6e:50:b9:1a:0b:
         f7:97:c0:9e:e0:4d:7e:2f:4c:09:52:ae:ad:04:40:f7:36:13:
         12:e9:9d:5c:3b:50:aa:3a:e4:15:51:ed:50:f7:db:61:1e:61:
         e0:e4:53:82:b9:b4:bb:6e:a3:3a:a2:c7:f1:b8:f9:90:7c:52:
         93:19:94:77:fa:b0:e2:93:07:5c:68:5e:bf:fb:e5:88:f6:eb:
         8f:15:df:a3:24:c2:c2:39:3b:de:1b:de:d6:7e:12:08:8b:8f:
         9e:a5:3e:b3
-----BEGIN CERTIFICATE-----
MIIDVDCCAjygAwIBAgIRAMcQ/rozwzKz8syIHXRo3+4wDQYJKoZIhvcNAQELBQAw
FTETMBEGA1UEAwwKb3BlbnZwbi1jYTAeFw0yNTA0MDkwODE0NDZaFw0yNzA3MTMw
ODE0NDZaMBIxEDAOBgNVBAMMB2NsaWVudDIwggEiMA0GCSqGSIb3DQEBAQUAA4IB
DwAwggEKAoIBAQDbsa2UjTjf3F1oAYJZixdJy7nYJINOqvhwIVipr7wV7ILP3tCH
UKf0UPr8svnR9Xt41OAmqX0ITlR2D9MLCaEI5hdbs4gNmr2XEUo6Ez+zDdOQqhJE
GxcIoNHMQu9tn63fEulhmQ9IcbJG1d7YAT/aVD83tZobhYfOEZ6dq/9OAk+m2KRd
JADJCM4TNyAjQfDZXmJuPQKjz+9FbVq5yWvvB958fE2llycv5uoXK7kxoLrXrghN
V6a/5Y6/jgpBjKrD5ANS3WIeDYMcDo6BKjnkf1MTXrxlLtDnP1+zORS0edlKGQ7l
iJgimPwxLNVIfDUx6sF9Vim/FB34OL1wJEE9AgMBAAGjgaEwgZ4wCQYDVR0TBAIw
ADAdBgNVHQ4EFgQUuO8k/V907aVSUzoQi7FTz+7wufUwUAYDVR0jBEkwR4AUO4Vr
V+YM92JXnMB4034Dx8KDME2hGaQXMBUxEzARBgNVBAMMCm9wZW52cG4tY2GCFHtI
edY3SW1ASl7Q8gqssmDd2EJMMBMGA1UdJQQMMAoGCCsGAQUFBwMCMAsGA1UdDwQE
AwIHgDANBgkqhkiG9w0BAQsFAAOCAQEAe7mFbF6P5z38ZN2AQl74XD5L/2LQvheJ
pW9gcf1ytZuMdLeWVQSEA8myqhFjwM91qIFM8mju6Pne38G9iEvHufK9kvwsIqjU
z1H1kciacPCRAsTcfHzLlQRZGeAdwv00kZhBKna8tszkJXsB8wsIBYiXZyrvocSx
tfc3f39o4NxYBISIt3nC1ce3NkEONClHn1d+1uwwq9Ui+PGB5G5QuRoL95fAnuBN
fi9MCVKurQRA9zYTEumdXDtQqjrkFVHtUPfbYR5h4ORTgrm0u26jOqLH8bj5kHxS
kxmUd/qw4pMHXGhev/vliPbrjxXfoyTCwjk73hve1n4SCIuPnqU+sw==
-----END CERTIFICATE-----
