Certificate:
    Data:
        Version: 3 (0x2)
        Serial Number:
            64:4b:2e:ed:45:72:db:18:71:fa:46:33:16:73:30:b7
        Signature Algorithm: sha256WithRSAEncryption
        Issuer: CN=openvpn-ca
        Validity
            Not Before: Apr  9 08:18:13 2025 GMT
            Not After : Jul 13 08:18:13 2027 GMT
        Subject: CN=client3
        Subject Public Key Info:
            Public Key Algorithm: rsaEncryption
                RSA Public-Key: (2048 bit)
                Modulus:
                    00:c8:9d:59:62:e3:1d:f5:53:16:92:a3:f6:35:7e:
                    e0:d7:63:e8:36:33:54:2e:01:3d:2b:df:14:08:ac:
                    8b:53:13:2d:85:ea:f4:08:b4:bd:fb:94:c2:63:31:
                    10:3a:45:8c:3c:80:3d:29:bb:e8:2e:db:4d:ac:fe:
                    c7:73:45:1c:3f:23:63:78:ba:8b:ad:e8:1a:85:86:
                    a8:c6:fd:8e:cf:97:9f:68:82:35:3b:21:76:38:69:
                    da:fa:eb:66:ca:b2:be:22:df:2c:04:f6:ce:ec:35:
                    34:c0:ce:0b:b7:aa:cf:53:83:4b:b1:58:8a:3b:60:
                    2c:9d:c9:19:74:da:56:80:b3:25:f7:24:71:f8:11:
                    5a:75:76:b3:ae:1d:73:2e:6c:bd:a0:8e:d0:2d:77:
                    2c:01:56:be:fc:1e:41:68:29:67:85:40:8e:f4:24:
                    8d:86:69:be:1a:a9:4e:c2:54:c0:28:25:95:6d:28:
                    f6:31:a7:b5:13:fa:3f:13:a4:a4:d7:23:8c:07:a5:
                    a3:2c:8d:52:4b:29:11:ea:45:39:ac:ba:ef:e2:cc:
                    a6:68:da:b7:fd:2c:0b:a4:dd:6b:d9:ca:fb:89:16:
                    e1:d9:06:8c:44:b4:b5:dd:6a:79:51:fd:56:ed:a2:
                    d2:ee:6e:3f:a6:79:f4:f5:66:42:6c:8d:66:5a:a2:
                    00:37
                Exponent: 65537 (0x10001)
        X509v3 extensions:
            X509v3 Basic Constraints: 
                CA:FALSE
            X509v3 Subject Key Identifier: 
                78:A6:7E:09:8C:E4:E0:81:D4:C5:D2:EE:02:EC:80:24:D1:85:7A:40
            X509v3 Authority Key Identifier: 
                keyid:3B:85:6B:57:E6:0C:F7:62:57:9C:C0:78:D3:7E:03:C7:C2:83:30:4D
                DirName:/CN=openvpn-ca
                serial:7B:48:79:D6:37:49:6D:40:4A:5E:D0:F2:0A:AC:B2:60:DD:D8:42:4C

            X509v3 Extended Key Usage: 
                TLS Web Client Authentication
            X509v3 Key Usage: 
                Digital Signature
    Signature Algorithm: sha256WithRSAEncryption
         55:ff:aa:ac:82:ae:89:d9:53:45:be:a4:a6:9a:1a:d6:9f:8a:
         8e:9d:67:0a:39:da:b9:7a:01:74:77:8b:f5:a8:52:45:f6:41:
         80:99:81:d0:ea:50:56:02:05:f9:29:40:d0:ab:db:08:16:a4:
         4d:5e:9e:bd:79:36:be:21:0c:bb:47:16:3d:71:c1:53:67:a8:
         10:a6:00:d1:de:c4:65:70:5d:b7:0d:b0:8b:2f:32:61:d9:41:
         90:04:7f:66:2c:7c:da:05:0a:3c:1b:c9:a2:c3:a3:b5:47:28:
         ef:c6:9f:96:77:f7:ff:97:b9:15:29:c2:53:c2:42:da:5d:02:
         2f:1d:17:b4:24:2d:ba:d5:4a:62:33:ef:cf:c5:a7:f8:c2:9b:
         f1:32:66:c0:3d:c7:e0:71:07:3c:b5:24:72:12:a1:72:e1:48:
         2c:c1:87:4c:ba:e2:58:9c:cb:3f:ca:33:a0:f0:8e:8d:51:b9:
         8b:8d:72:b4:54:83:ae:2e:2d:87:19:90:34:2a:79:45:e0:86:
         23:5e:16:01:f8:96:eb:34:14:d7:2d:79:7c:67:46:8d:1e:da:
         01:4e:92:c2:02:1f:4c:d2:9b:f7:d1:91:03:3e:51:23:a0:02:
         44:35:2a:cb:9e:91:9a:0e:56:61:0b:15:fd:5c:e7:92:40:e2:
         84:bc:ab:4f
-----BEGIN CERTIFICATE-----
MIIDUzCCAjugAwIBAgIQZEsu7UVy2xhx+kYzFnMwtzANBgkqhkiG9w0BAQsFADAV
MRMwEQYDVQQDDApvcGVudnBuLWNhMB4XDTI1MDQwOTA4MTgxM1oXDTI3MDcxMzA4
MTgxM1owEjEQMA4GA1UEAwwHY2xpZW50MzCCASIwDQYJKoZIhvcNAQEBBQADggEP
ADCCAQoCggEBAMidWWLjHfVTFpKj9jV+4Ndj6DYzVC4BPSvfFAisi1MTLYXq9Ai0
vfuUwmMxEDpFjDyAPSm76C7bTaz+x3NFHD8jY3i6i63oGoWGqMb9js+Xn2iCNTsh
djhp2vrrZsqyviLfLAT2zuw1NMDOC7eqz1ODS7FYijtgLJ3JGXTaVoCzJfckcfgR
WnV2s64dcy5svaCO0C13LAFWvvweQWgpZ4VAjvQkjYZpvhqpTsJUwCgllW0o9jGn
tRP6PxOkpNcjjAeloyyNUkspEepFOay67+LMpmjat/0sC6Tda9nK+4kW4dkGjES0
td1qeVH9Vu2i0u5uP6Z59PVmQmyNZlqiADcCAwEAAaOBoTCBnjAJBgNVHRMEAjAA
MB0GA1UdDgQWBBR4pn4JjOTggdTF0u4C7IAk0YV6QDBQBgNVHSMESTBHgBQ7hWtX
5gz3YlecwHjTfgPHwoMwTaEZpBcwFTETMBEGA1UEAwwKb3BlbnZwbi1jYYIUe0h5
1jdJbUBKXtDyCqyyYN3YQkwwEwYDVR0lBAwwCgYIKwYBBQUHAwIwCwYDVR0PBAQD
AgeAMA0GCSqGSIb3DQEBCwUAA4IBAQBV/6qsgq6J2VNFvqSmmhrWn4qOnWcKOdq5
egF0d4v1qFJF9kGAmYHQ6lBWAgX5KUDQq9sIFqRNXp69eTa+IQy7RxY9ccFTZ6gQ
pgDR3sRlcF23DbCLLzJh2UGQBH9mLHzaBQo8G8miw6O1Ryjvxp+Wd/f/l7kVKcJT
wkLaXQIvHRe0JC261UpiM+/Pxaf4wpvxMmbAPcfgcQc8tSRyEqFy4UgswYdMuuJY
nMs/yjOg8I6NUbmLjXK0VIOuLi2HGZA0KnlF4IYjXhYB+JbrNBTXLXl8Z0aNHtoB
TpLCAh9M0pv30ZEDPlEjoAJENSrLnpGaDlZhCxX9XOeSQOKEvKtP
-----END CERTIFICATE-----
