Certificate:
    Data:
        Version: 3 (0x2)
        Serial Number:
            95:f0:c1:bc:bd:0d:ae:da:07:63:e8:50:c4:53:6e:f9
        Signature Algorithm: sha256WithRSAEncryption
        Issuer: CN=openvpn-ca
        Validity
            Not Before: Apr  9 08:12:19 2025 GMT
            Not After : Jul 13 08:12:19 2027 GMT
        Subject: CN=client1
        Subject Public Key Info:
            Public Key Algorithm: rsaEncryption
                RSA Public-Key: (2048 bit)
                Modulus:
                    00:bb:04:d6:05:aa:ca:7d:ec:86:a0:46:ce:16:bb:
                    2f:ea:8d:2b:e1:a2:05:90:a9:32:c4:ae:57:ef:56:
                    d4:6f:eb:b3:1d:0d:4a:e0:a3:e7:ff:71:3a:68:98:
                    0d:bc:87:50:5c:00:d2:6e:41:b3:99:1e:a0:14:13:
                    7e:a3:99:a2:c5:75:26:63:f4:9c:b5:d9:44:ae:fc:
                    32:01:47:2c:e3:e6:57:99:ca:e3:c3:29:e9:55:d4:
                    83:04:bb:34:b6:71:d8:b4:3e:c6:3c:a5:13:95:5a:
                    dd:b7:0f:57:8b:e9:9d:c4:ed:95:3b:f5:c9:90:77:
                    53:8d:81:7c:7f:a8:90:0c:ae:d8:4e:6f:81:ce:71:
                    aa:41:6c:c2:b9:6e:2d:81:18:1f:49:a3:dc:cd:bb:
                    50:ff:26:ae:9b:f8:f1:1b:2d:29:2d:2b:e2:3c:43:
                    eb:7e:0f:5e:19:c8:74:e2:6f:78:e7:3c:53:25:fa:
                    63:57:7f:35:33:40:1b:86:e3:f0:88:0e:47:f4:62:
                    dd:25:89:5c:86:5f:aa:fd:eb:32:09:c6:f3:fe:9a:
                    77:92:fe:db:57:fa:60:fa:93:b1:7b:67:05:61:dc:
                    36:07:94:eb:be:32:49:f2:67:dd:90:3d:a4:28:5d:
                    31:b5:67:ef:5f:c9:f1:d2:ff:46:bf:9c:a6:b7:75:
                    47:8b
                Exponent: 65537 (0x10001)
        X509v3 extensions:
            X509v3 Basic Constraints: 
                CA:FALSE
            X509v3 Subject Key Identifier: 
                0D:F9:5D:21:8A:AF:A3:E9:06:E5:1D:9C:23:FD:A6:50:C8:49:FD:16
            X509v3 Authority Key Identifier: 
                keyid:3B:85:6B:57:E6:0C:F7:62:57:9C:C0:78:D3:7E:03:C7:C2:83:30:4D
                DirName:/CN=openvpn-ca
                serial:7B:48:79:D6:37:49:6D:40:4A:5E:D0:F2:0A:AC:B2:60:DD:D8:42:4C

            X509v3 Extended Key Usage: 
                TLS Web Client Authentication
            X509v3 Key Usage: 
                Digital Signature
    Signature Algorithm: sha256WithRSAEncryption
         99:a5:09:93:73:de:3d:9a:69:bd:85:b0:9e:de:35:2e:f6:ab:
         9d:5f:e3:5e:9e:f5:b1:db:c8:80:0e:64:60:72:76:91:65:2c:
         eb:e8:a3:68:72:8f:33:85:84:35:fa:67:70:00:08:cd:0f:44:
         04:c7:e0:c3:a7:88:d1:97:4d:92:48:48:1b:a1:21:a8:11:8f:
         5c:45:3e:ae:32:70:cd:3d:08:b2:43:4a:ab:b7:85:be:eb:40:
         ca:06:f6:46:74:8e:41:fe:20:15:31:b7:50:89:9c:28:d4:cf:
         41:28:a5:75:3d:14:56:78:51:f1:35:cf:8d:b1:83:d9:19:93:
         ad:a8:2c:44:68:d2:fb:b6:da:ab:1f:13:eb:d0:c8:3c:0c:1d:
         c0:7d:bf:64:6a:28:e4:92:f3:85:d5:02:ba:f8:ae:52:61:36:
         37:d8:75:cd:4a:38:88:8a:fb:34:20:4a:72:38:c1:17:f3:f0:
         03:72:07:95:f0:86:ec:36:b5:a6:f6:a0:f0:cb:34:ff:1a:48:
         35:89:8b:6c:44:23:ae:eb:93:6e:c2:21:f5:f0:60:e2:93:73:
         c9:25:f6:c6:2a:1a:4c:a5:a3:2f:c6:80:3b:fe:5e:2f:c5:50:
         ae:b0:98:a4:b5:58:a8:b7:8d:6a:59:a1:fa:93:05:d5:cc:db:
         c2:66:f0:42
-----BEGIN CERTIFICATE-----
MIIDVDCCAjygAwIBAgIRAJXwwby9Da7aB2PoUMRTbvkwDQYJKoZIhvcNAQELBQAw
FTETMBEGA1UEAwwKb3BlbnZwbi1jYTAeFw0yNTA0MDkwODEyMTlaFw0yNzA3MTMw
ODEyMTlaMBIxEDAOBgNVBAMMB2NsaWVudDEwggEiMA0GCSqGSIb3DQEBAQUAA4IB
DwAwggEKAoIBAQC7BNYFqsp97IagRs4Wuy/qjSvhogWQqTLErlfvVtRv67MdDUrg
o+f/cTpomA28h1BcANJuQbOZHqAUE36jmaLFdSZj9Jy12USu/DIBRyzj5leZyuPD
KelV1IMEuzS2cdi0PsY8pROVWt23D1eL6Z3E7ZU79cmQd1ONgXx/qJAMrthOb4HO
capBbMK5bi2BGB9Jo9zNu1D/Jq6b+PEbLSktK+I8Q+t+D14ZyHTib3jnPFMl+mNX
fzUzQBuG4/CIDkf0Yt0liVyGX6r96zIJxvP+mneS/ttX+mD6k7F7ZwVh3DYHlOu+
MknyZ92QPaQoXTG1Z+9fyfHS/0a/nKa3dUeLAgMBAAGjgaEwgZ4wCQYDVR0TBAIw
ADAdBgNVHQ4EFgQUDfldIYqvo+kG5R2cI/2mUMhJ/RYwUAYDVR0jBEkwR4AUO4Vr
V+YM92JXnMB4034Dx8KDME2hGaQXMBUxEzARBgNVBAMMCm9wZW52cG4tY2GCFHtI
edY3SW1ASl7Q8gqssmDd2EJMMBMGA1UdJQQMMAoGCCsGAQUFBwMCMAsGA1UdDwQE
AwIHgDANBgkqhkiG9w0BAQsFAAOCAQEAmaUJk3PePZppvYWwnt41LvarnV/jXp71
sdvIgA5kYHJ2kWUs6+ijaHKPM4WENfpncAAIzQ9EBMfgw6eI0ZdNkkhIG6EhqBGP
XEU+rjJwzT0IskNKq7eFvutAygb2RnSOQf4gFTG3UImcKNTPQSildT0UVnhR8TXP
jbGD2RmTragsRGjS+7baqx8T69DIPAwdwH2/ZGoo5JLzhdUCuviuUmE2N9h1zUo4
iIr7NCBKcjjBF/PwA3IHlfCG7Da1pvag8Ms0/xpINYmLbEQjruuTbsIh9fBg4pNz
ySX2xioaTKWjL8aAO/5eL8VQrrCYpLVYqLeNalmh+pMF1czbwmbwQg==
-----END CERTIFICATE-----
