Certificate:
    Data:
        Version: 3 (0x2)
        Serial Number:
            f9:80:e0:dd:18:27:03:48:40:61:8e:da:6f:a9:38:30
        Signature Algorithm: sha256WithRSAEncryption
        Issuer: CN=openvpn-ca
        Validity
            Not Before: Apr  9 07:48:20 2025 GMT
            Not After : Jul 13 07:48:20 2027 GMT
        Subject: CN=vpn-server.local
        Subject Public Key Info:
            Public Key Algorithm: rsaEncryption
                RSA Public-Key: (2048 bit)
                Modulus:
                    00:d7:df:55:4d:0f:3a:77:ab:66:4f:ac:84:23:2b:
                    1e:e4:95:21:30:57:e9:28:3c:62:20:34:f1:0d:77:
                    c1:54:43:e2:c5:78:8a:7c:b8:bf:ce:8d:22:06:98:
                    78:99:4b:8b:cf:65:b5:d3:4d:8a:6a:fc:5b:60:99:
                    a9:37:c9:8d:a1:7a:95:a9:0a:71:3e:7b:f2:05:1a:
                    81:44:73:12:8c:82:c3:f9:da:49:00:0c:f9:40:24:
                    a7:aa:5e:b2:f8:58:f3:b1:38:25:26:16:95:fb:f5:
                    28:90:9b:e7:c3:43:fb:28:bb:cb:25:7b:81:65:26:
                    5c:42:1d:13:a0:95:f4:5b:e1:72:ca:21:50:45:fb:
                    76:ee:b3:7e:43:11:3d:2d:ed:a0:37:d6:f1:77:72:
                    cc:8d:18:9c:7a:4a:2f:1a:46:ce:f0:6b:6d:b4:7d:
                    a1:1a:85:8f:ed:59:33:33:49:29:f2:6c:f3:25:23:
                    68:35:79:6c:08:77:d0:03:7b:65:99:d1:89:a2:23:
                    70:22:5e:a9:78:93:47:a9:5a:09:7f:71:c7:13:08:
                    2c:cc:71:21:dd:f0:07:16:49:65:97:05:55:50:ea:
                    8d:5f:d4:5c:6c:00:01:5a:88:7a:60:6c:80:25:7d:
                    99:a8:f6:d2:69:c1:c7:b0:f6:8a:d0:72:59:27:1c:
                    a7:73
                Exponent: 65537 (0x10001)
        X509v3 extensions:
            X509v3 Basic Constraints: 
                CA:FALSE
            X509v3 Subject Key Identifier: 
                D3:65:32:AB:11:D7:6D:14:FB:4C:E5:9B:F0:9D:7C:E1:5E:30:AD:C9
            X509v3 Authority Key Identifier: 
                keyid:3B:85:6B:57:E6:0C:F7:62:57:9C:C0:78:D3:7E:03:C7:C2:83:30:4D
                DirName:/CN=openvpn-ca
                serial:7B:48:79:D6:37:49:6D:40:4A:5E:D0:F2:0A:AC:B2:60:DD:D8:42:4C

            X509v3 Extended Key Usage: 
                TLS Web Server Authentication
            X509v3 Key Usage: 
                Digital Signature, Key Encipherment
            X509v3 Subject Alternative Name: 
                DNS:vpn-server.local
    Signature Algorithm: sha256WithRSAEncryption
         83:45:2f:71:fd:76:2d:49:13:8e:6d:bf:cc:0c:77:32:91:f1:
         33:ba:6b:c4:3f:fd:25:57:37:eb:ca:27:81:9a:11:4b:61:0b:
         12:e1:63:6c:7d:7c:81:85:54:8a:c4:77:0a:0e:53:95:02:31:
         4e:8f:7b:31:de:2d:28:80:73:ab:a4:c5:61:e3:26:38:48:43:
         2e:8a:12:ea:3e:99:72:ab:e5:41:a5:a9:54:03:be:f4:fe:58:
         f1:98:95:68:92:b5:43:dd:9a:d6:ec:26:7d:92:11:e2:89:4c:
         67:90:2f:c8:83:ba:d6:12:50:7c:6c:4c:d5:fd:00:e5:9a:ce:
         eb:dc:ca:40:b8:17:53:39:36:0d:d0:06:0b:fd:40:09:be:2c:
         f8:bd:b6:69:ce:7a:4d:d4:62:fa:4d:6a:46:d5:79:0c:ff:12:
         90:94:60:d2:8a:a8:18:fd:93:e3:85:18:1d:e8:f9:64:b3:ca:
         51:9f:a3:d9:10:7a:47:68:04:d2:b3:27:ff:04:cd:13:30:47:
         c5:68:dd:2d:d4:68:08:4c:e6:cd:22:fc:21:7d:8c:d1:ab:d1:
         b8:8d:00:75:05:79:b3:75:e4:5d:13:2e:14:0c:16:69:77:52:
         8c:b9:b9:82:a4:fb:d4:3f:a2:1c:a2:21:08:e5:c7:6a:bd:12:
         c5:42:d9:ce
-----BEGIN CERTIFICATE-----
MIIDejCCAmKgAwIBAgIRAPmA4N0YJwNIQGGO2m+pODAwDQYJKoZIhvcNAQELBQAw
FTETMBEGA1UEAwwKb3BlbnZwbi1jYTAeFw0yNTA0MDkwNzQ4MjBaFw0yNzA3MTMw
NzQ4MjBaMBsxGTAXBgNVBAMMEHZwbi1zZXJ2ZXIubG9jYWwwggEiMA0GCSqGSIb3
DQEBAQUAA4IBDwAwggEKAoIBAQDX31VNDzp3q2ZPrIQjKx7klSEwV+koPGIgNPEN
d8FUQ+LFeIp8uL/OjSIGmHiZS4vPZbXTTYpq/Ftgmak3yY2hepWpCnE+e/IFGoFE
cxKMgsP52kkADPlAJKeqXrL4WPOxOCUmFpX79SiQm+fDQ/sou8sle4FlJlxCHROg
lfRb4XLKIVBF+3bus35DET0t7aA31vF3csyNGJx6Si8aRs7wa220faEahY/tWTMz
SSnybPMlI2g1eWwId9ADe2WZ0YmiI3AiXql4k0epWgl/cccTCCzMcSHd8AcWSWWX
BVVQ6o1f1FxsAAFaiHpgbIAlfZmo9tJpwcew9orQclknHKdzAgMBAAGjgb4wgbsw
CQYDVR0TBAIwADAdBgNVHQ4EFgQU02UyqxHXbRT7TOWb8J184V4wrckwUAYDVR0j
BEkwR4AUO4VrV+YM92JXnMB4034Dx8KDME2hGaQXMBUxEzARBgNVBAMMCm9wZW52
cG4tY2GCFHtIedY3SW1ASl7Q8gqssmDd2EJMMBMGA1UdJQQMMAoGCCsGAQUFBwMB
MAsGA1UdDwQEAwIFoDAbBgNVHREEFDASghB2cG4tc2VydmVyLmxvY2FsMA0GCSqG
SIb3DQEBCwUAA4IBAQCDRS9x/XYtSROObb/MDHcykfEzumvEP/0lVzfryieBmhFL
YQsS4WNsfXyBhVSKxHcKDlOVAjFOj3sx3i0ogHOrpMVh4yY4SEMuihLqPplyq+VB
palUA770/ljxmJVokrVD3ZrW7CZ9khHiiUxnkC/Ig7rWElB8bEzV/QDlms7r3MpA
uBdTOTYN0AYL/UAJviz4vbZpznpN1GL6TWpG1XkM/xKQlGDSiqgY/ZPjhRgd6Plk
s8pRn6PZEHpHaATSsyf/BM0TMEfFaN0t1GgITObNIvwhfYzRq9G4jQB1BXmzdeRd
Ey4UDBZpd1KMubmCpPvUP6IcoiEI5cdqvRLFQtnO
-----END CERTIFICATE-----
